; Function Attrs: nounwind uwtable
define noalias nonnull ptr @l_Lean_Elab_Term_Quotation_elabPrecheckedQuot___lambda__1(ptr noundef %0, ptr noundef readnone captures(none) %1, ptr noundef readnone captures(none) %2, ptr noundef readnone captures(none) %3, ptr noundef readnone captures(none) %4, ptr noundef readnone captures(none) %5, ptr noundef readnone captures(none) %6, ptr noundef readnone captures(none) %7, ptr noundef %8) local_unnamed_addr #0 {
  tail call void @lean_inc_heartbeat() #4
  %10 = tail call noalias ptr @mi_malloc_small(i64 noundef 24) #4
  %11 = icmp eq ptr %10, null
  br i1 %11, label %12, label %lean_alloc_ctor.exit

12:                                               ; preds = %9
  tail call void @lean_internal_panic_out_of_memory() #5
  unreachable

lean_alloc_ctor.exit:                             ; preds = %9
  %13 = getelementptr inbounds nuw i8, ptr %10, i64 4
  store i32 1, ptr %10, align 4, !tbaa !4
  store i32 131096, ptr %13, align 4
  %14 = getelementptr inbounds nuw i8, ptr %10, i64 8
  store ptr %0, ptr %14, align 8, !tbaa !9
  %15 = getelementptr inbounds nuw i8, ptr %10, i64 16
  store ptr %8, ptr %15, align 8, !tbaa !9
  ret ptr %10
}